MPASM 5.84                          TEST.ASM   6-16-2023  11:18:03         PAGE  1


LOC  OBJECT CODE     LINE SOURCE TEXT
  VALUE

                      00001 ; ******************************************************************************
                      00002 ; Codigo que lee el valor analogico de un sensor de nivel conectado en RA3 para
                      00003 ; luego convertirlo a digital con el ADC, guardar esta conversion en un registro
                      00004 ; de memoria, mostrarlo en un display de barras conectado en el PORTB. Si el valor
                      00005 ; medido supera el 90% de su maximo enciende un buzzer a modo de alarma en RD6.
                      00006 ; A su vez los datos medidos son enviados a la PC mediante puerto serie cada un
                      00007 ; tiempo determinado, y desde la PC se puede prender o apagar el funcionamiento 
                      00008 ; del ADC enviando el codigo especifico.
                      00009 ; 
                      00010 ; Se utilizaron interrupciones por TMR0, ADC y TX/RX.
                      00011 ; ******************************************************************************
                      00012 ; ******************************************************************************
                      00013             LIST        P = 16F887
                      00014             #INCLUDE    <P16F887.INC>
                      00001         LIST
                      00002 
                      00003 ;==========================================================================
                      00004 ; Build date : Mar 17 2019
                      00005 ;  MPASM PIC16F887 processor include
                      00006 ; 
                      00007 ;  (c) Copyright 1999-2019 Microchip Technology, All rights reserved
                      00008 ;==========================================================================
                      00009 
                      00810         LIST
                      00015             
                      00016 ; ******************************************************************************
                      00017 ; ****************************** PIC-CONFIG ************************************
                      00018 ; ******************************************************************************
2007   2FF4           00019             __CONFIG _CONFIG1, _FOSC_INTRC_NOCLKOUT & _WDTE_OFF & _PWRTE_OFF & _MCLRE_ON & _CP_OFF & _CP
                            D_OFF & _BOREN_ON & _IESO_ON & _FCMEN_ON & _LVP_OFF
2008   3FFF           00020             __CONFIG _CONFIG2, _BOR4V_BOR40V & _WRT_OFF
                      00021             
                      00022 ; ******************************************************************************
                      00023 ; ****************************** VARIABLES *************************************
                      00024 ; ******************************************************************************
                      00025             ; Variables en los registros 0x70++ para tenerlas espejadas en los 4 bancos de memoria.
Warning[207]: Found label after column 1. (W_TEMP)
  00000070            00026             W_TEMP      EQU 0x70    ; Guardar contexto de W.
Warning[207]: Found label after column 1. (S_TEMP)
  00000071            00027             S_TEMP      EQU 0x71    ; Guardar contexto de STATUS.
Warning[207]: Found label after column 1. (ADC_READ)
  00000072            00028             ADC_READ    EQU 0x72    ; Valor ya convertido leido por el ADC.
Warning[207]: Found label after column 1. (TEMP)
  00000073            00029             TEMP        EQU 0x73    ; Variable temporal para delay de 20[us]
Warning[207]: Found label after column 1. (T0_VAL)
  00000074            00030             T0_VAL      EQU 0x74    ; Valor para cargar el TMR0 y contar 50[ms].
Warning[207]: Found label after column 1. (SEC_CNT)
  00000075            00031             SEC_CNT     EQU 0x75    ; Contador para llegar a 1[s] con TMR0.
Warning[207]: Found label after column 1. (BUZ_VAL)
  00000076            00032             BUZ_VAL     EQU 0x76    ; Valor maximo para prender la alarma.
Warning[207]: Found label after column 1. (RX_DATA)
  00000077            00033             RX_DATA     EQU 0x77    ; Valor que llega desde la PC.
Warning[207]: Found label after column 1. (RX_CODE)
MPASM 5.84                          TEST.ASM   6-16-2023  11:18:03         PAGE  2


LOC  OBJECT CODE     LINE SOURCE TEXT
  VALUE

  00000078            00034             RX_CODE     EQU 0x78    ; Letra para prender y apagar el ADC.
Warning[207]: Found label after column 1. (TEMP2)
  00000079            00035             TEMP2       EQU 0x79    ; Variable temporal para testear cuantas barras leds encender.
                      00036     
                      00037 ; ******************************************************************************
                      00038 ; ****************************** INIT ******************************************
                      00039 ; ******************************************************************************
                      00040             ORG     0x00
0000   2???           00041             GOTO    SETUP          
                      00042             ORG     0x04
0004   2???           00043             GOTO    ISR             ; Rutina de interrupcion.
                      00044             ORG     0x05
                      00045             
                      00046 ; ******************************************************************************
                      00047 ; ****************************** REG-CONFIG ************************************
                      00048 ; ******************************************************************************
0005   303C           00049 SETUP       MOVLW   .60             ; Timer de 50[ms] con pre-scaler 256.
0006   00F4           00050             MOVWF   T0_VAL
0007   300A           00051             MOVLW   .10             ; Contador de 20 para llegar a 1[s] -> 20*50ms = 1000ms.
0008   00F5           00052             MOVWF   SEC_CNT
0009   30E6           00053             MOVLW   .230            ; Seteo valor maximo para prender la alarma.
000A   00F6           00054             MOVWF   BUZ_VAL
                      00055             
000B   3073           00056             MOVLW   0x73            ; El ADC se prende/apaga con 73h = s
000C   00F8           00057             MOVWF   RX_CODE
                      00058             
000D   1683 1303      00059             BANKSEL TRISA           ; TRISA Input en RA3.
000F   3020           00060             MOVLW   b'00100000'     
Message[302]: Register in operand not in bank 0.  Ensure that bank bits are correct.
0010   0085           00061             MOVWF   TRISA
0011   1683 1703      00062             BANKSEL ANSEL           ; RA3 como salida analogica.
0013   3020           00063             MOVLW   b'00100000'     ; Limpio ANSELH para setear PORTB digital.    
Message[302]: Register in operand not in bank 0.  Ensure that bank bits are correct.
0014   0088           00064             MOVWF   ANSEL
Message[302]: Register in operand not in bank 0.  Ensure that bank bits are correct.
0015   0189           00065             CLRF    ANSELH          
0016   1683 1303      00066             BANKSEL TRISB           ; PORTB/D como output digital.
Message[302]: Register in operand not in bank 0.  Ensure that bank bits are correct.
0018   0186           00067             CLRF    TRISB
Message[302]: Register in operand not in bank 0.  Ensure that bank bits are correct.
0019   0188           00068             CLRF    TRISD
Message[302]: Register in operand not in bank 0.  Ensure that bank bits are correct.
001A   1287           00069             BCF     TRISC, RC5      ; Led conectado en RC5 para debug del ADC.
Message[302]: Register in operand not in bank 0.  Ensure that bank bits are correct.
001B   1005           00070             BCF     TRISA, RA0      ; Led conectado en RA0 para debug del PIC.
                      00071             
001C   1683 1303      00072             BANKSEL OPTION_REG      ; RBPU INTEDG T0CS T0SE PSA PS2 PS1 PS0
001E   30D7           00073             MOVLW   b'11010111'     ; Activo clk interno y pre-scaler 256.
Message[302]: Register in operand not in bank 0.  Ensure that bank bits are correct.
001F   0081           00074             MOVWF   OPTION_REG
                      00075             
0020   2???           00076             CALL    INIT_UART       ; Setup de UART y ADC.
0021   2???           00077             CALL    INIT_ADC
MPASM 5.84                          TEST.ASM   6-16-2023  11:18:03         PAGE  3


LOC  OBJECT CODE     LINE SOURCE TEXT
  VALUE

0022   2???           00078             CALL    DELAY_20us
0023   2???           00079             CALL    INIT_INT        ; Activo interrupciones.
0024   2???           00080             CALL    LOAD_TMR0       ; Inicio a contar TMR0.
                      00081             
0025   1283 1303      00082             BANKSEL ADCON0
0027   149F           00083             BSF     ADCON0, GO      ; El ADC comienza a convertir.
                      00084             
0028   018C           00085             CLRF    PIR1            ; Limpio registros.
0029   0185           00086             CLRF    PORTA
002A   0186           00087             CLRF    PORTB
002B   0188           00088             CLRF    PORTD
                      00089             
002C   1687           00090             BSF     PORTC, RC5      ; Prendo los leds de funcionamiento para corroborar que funciona el 
                            PIC.
002D   1405           00091             BSF     PORTA, RA0      ; El de RA0 es general, el de RC5 es para el on/off del ADC.
002E   2???           00092             GOTO    MAIN
                      00093 
                      00094 ; ******************************************************************************
                      00095 ; ****************************** MAIN ******************************************
                      00096 ; ******************************************************************************    
002F   0877           00097 MAIN        MOVF    RX_DATA, W      ; Testeo el codigo que llega desde la PC.
0030   0278           00098             SUBWF   RX_CODE, W      ; Si este codigo es igual a RX_CODE apagamos/prendemos el ADC.
0031   1903           00099             BTFSC   STATUS,Z        ; Si es distinto no hago nada.
0032   2???           00100             CALL    ADC_OFF_ON
                      00101 
0033   0872           00102             MOVF    ADC_READ, W     ; Restas para convertir mostrar el numero binario
0034   00F9           00103             MOVWF   TEMP2           ; en una escala de 0-100%
0035   3003           00104             MOVLW   .3              ; Se resta de a 25 para ver la cantidad de barras a encender.
0036   0279           00105             SUBWF   TEMP2, W        ; Basicamente se verifica si la medicion esta entre el rango de 25 u
                            nidades
0037   1C03           00106             BTFSS   STATUS, C       ; Se toma 25 pq 256/10 ~= 25
0038   2???           00107             GOTO    ZERO_LED
0039   3019           00108             MOVLW   .25
003A   0279           00109             SUBWF   TEMP2, W
003B   1C03           00110             BTFSS   STATUS, C
003C   2???           00111             GOTO    ONE_LED
003D   3032           00112             MOVLW   .50
003E   0279           00113             SUBWF   TEMP2, W
003F   1C03           00114             BTFSS   STATUS, C
0040   2???           00115             GOTO    TWO_LED
0041   304B           00116             MOVLW   .75
0042   0279           00117             SUBWF   TEMP2, W
0043   1C03           00118             BTFSS   STATUS, C
0044   2???           00119             GOTO    THREE_LED
0045   3064           00120             MOVLW   .100
0046   0279           00121             SUBWF   TEMP2, W
0047   1C03           00122             BTFSS   STATUS, C
0048   2???           00123             GOTO    FOUR_LED
0049   307D           00124             MOVLW   .125
004A   0279           00125             SUBWF   TEMP2, W
004B   1C03           00126             BTFSS   STATUS, C
004C   2???           00127             GOTO    FIVE_LED
004D   3096           00128             MOVLW   .150
MPASM 5.84                          TEST.ASM   6-16-2023  11:18:03         PAGE  4


LOC  OBJECT CODE     LINE SOURCE TEXT
  VALUE

004E   0279           00129             SUBWF   TEMP2, W
004F   1C03           00130             BTFSS   STATUS, C
0050   2???           00131             GOTO    SIX_LED
0051   30AF           00132             MOVLW   .175
0052   0279           00133             SUBWF   TEMP2, W
0053   1C03           00134             BTFSS   STATUS, C
0054   2???           00135             GOTO    SEVEN_LED
0055   30C8           00136             MOVLW   .200
0056   0279           00137             SUBWF   TEMP2, W
0057   1C03           00138             BTFSS   STATUS, C
0058   2???           00139             GOTO    EIGHT_LED
0059   30E1           00140             MOVLW   .225
005A   0279           00141             SUBWF   TEMP2, W
005B   1C03           00142             BTFSS   STATUS, C
005C   2???           00143             GOTO    NINE_LED        ; No se testea el ultimo caso ya que se hace por descarte.
005D   2???           00144             GOTO    TEN_LED
005E   2???           00145             GOTO    MAIN
                      00146              
                      00147 ; ******************************************************************************
                      00148 ; ****************************** SUB-ROUTINES **********************************
                      00149 ; ******************************************************************************
                      00150 ;------- Rutina para iniciar interrupciones.
005F   0000           00151 INIT_INT    NOP
0060   1683 1303      00152             BANKSEL PIE1            ; - ADIE RCIE TXIE SSPIE CCP1IE TMR2IE TMR1IE
0062   3060           00153             MOVLW   b'01100000'     ; Activamos interrupciones por ADC y RCIE
Message[302]: Register in operand not in bank 0.  Ensure that bank bits are correct.
0063   008C           00154             MOVWF   PIE1
0064   1283 1303      00155             BANKSEL INTCON          ; GIE PEIE T0IE INTE RBIE T0IF INTF RBIF
0066   30E0           00156             MOVLW   b'11100000'     ; Activo interrupciones globales y por perifericos y por TMR0.
0067   008B           00157             MOVWF   INTCON
0068   0008           00158             RETURN
                      00159 
                      00160 ;------- Rutinas para el ADC.
0069   0000           00161 INIT_ADC    NOP
006A   1283 1303      00162             BANKSEL ADCON0          ; ADCS1 ADCS0 CHS3 CHS2 CHS1 CHS0 GO/DONE ADON
006C   3091           00163             MOVLW   b'10010001'     ; Prendemos el ADC, Seteamos pin RA3/ANS4 a medir y
006D   009F           00164             MOVWF   ADCON0          ; un conversion-clock de Fosc/8.
006E   1683 1303      00165             BANKSEL ADCON1          ; ADFM - VCFG1 VCFG0 - - - -
0070   3004           00166             MOVLW   b'00000100'     ; Justificacion izquierda, ADRESH con 8 bits y ADRESH 2 bits msb.
Message[302]: Register in operand not in bank 0.  Ensure that bank bits are correct.
0071   009F           00167             MOVWF   ADCON1          ; Voltage reference como Vdd y Vcc del pic.
0072   0008           00168             RETURN
0073   300A           00169 DELAY_20us  MOVLW   .10             ; Delay de ~20ms para funcionamiento del ADC.
0074   00F3           00170             MOVWF   TEMP
0075   0BF3           00171             DECFSZ  TEMP, F
0076   2???           00172             GOTO    $-1
0077   0008           00173             RETURN
                      00174 
                      00175 ;------- Rutinas para comunicacion serie.
0078   0000           00176 INIT_UART   NOP
0079   1683 1303      00177             BANKSEL SPBRG           ; Seteamos baud-rate = 9600bps
007B   3019           00178             MOVLW   d'25'
Message[302]: Register in operand not in bank 0.  Ensure that bank bits are correct.
MPASM 5.84                          TEST.ASM   6-16-2023  11:18:03         PAGE  5


LOC  OBJECT CODE     LINE SOURCE TEXT
  VALUE

007C   0099           00179             MOVWF   SPBRG
007D   1683 1303      00180             BANKSEL TXSTA           
007F   3024           00181             MOVLW   b'00100100'     ; Configuro TXSTA como 8 bit transmission, tx habilitado, modo async
                            , high speed baud rate
Message[302]: Register in operand not in bank 0.  Ensure that bank bits are correct.
0080   0098           00182             MOVWF   TXSTA
0081   1283 1303      00183             BANKSEL RCSTA           ; Serial port enable, Continuous Receive
0083   3090           00184             MOVLW   b'10010000'     ; Habilito recepción y pines de puerto
0084   0098           00185             MOVWF   RCSTA
0085   1283 1303      00186             BANKSEL PIR1
0087   0008           00187             RETURN
                      00188 ;------- Rutina para enviar un dato por TX.     
0088   0872           00189 SEND_TX     MOVF    ADC_READ, W     ; Muevo lo que leyo el ADC a W y lo cargo en TXREG.
0089   1283 1303      00190             BANKSEL TXREG           ; Cuando se carga TXREG este comienza a enviarlo por TX.
008B   0099           00191             MOVWF   TXREG
008C   1683 1303      00192             BANKSEL TXSTA
Message[302]: Register in operand not in bank 0.  Ensure that bank bits are correct.
008E   1C98           00193             BTFSS   TXSTA, TRMT     ; Si el TRMT es 0, el dato ya se envio, si no espero.
008F   2???           00194             GOTO    $-1
0090   0008           00195             RETURN
                      00196             
                      00197 ;------- Rutinas para prender y apagar el buzzer en PORTD RD6.
0091   1708           00198 BUZ_OFF     BSF     PORTD, RD6      ; El buzzer se activa con 0 y se apaga con 1.
0092   2???           00199             GOTO    MAIN
0093   1308           00200 BUZ_ON      BCF     PORTD, RD6
0094   2???           00201             GOTO    MAIN
                      00202         
                      00203 ;------- Rutinas para prender y apagar las mediciones dependiendo lo que se envie desde la PC.
0095   01F7           00204 ADC_OFF_ON  CLRF    RX_DATA         ; Hacemos CLRF del valor recibido para que no quede en loop infinito
                            .
0096   1283 1303      00205             BANKSEL ADCON0          ; Si el ADC estaba encendido lo apagamos y el led RC5 se apaga.
0098   181F           00206             BTFSC   ADCON0, ADON    ; Si el ADC estaba apagado lo prendemos y el led RC5 se enciende.
0099   2???           00207             GOTO    ADC_OFF         ; El ADC se apaga y se prende controlando el bit ADON.
009A   2???           00208             GOTO    ADC_ON          ; Para apagar/prender tambien tenemos que controlar el bit GO/DONE.
009B   101F           00209 ADC_OFF     BCF     ADCON0, ADON
009C   109F           00210             BCF     ADCON0, 1
009D   1283 1303      00211             BANKSEL PORTD
009F   1287           00212             BCF     PORTC, RC5
00A0   0008           00213             RETURN
00A1   141F           00214 ADC_ON      BSF     ADCON0, ADON
00A2   149F           00215             BSF     ADCON0, 1
00A3   1283 1303      00216             BANKSEL PORTD
00A5   1687           00217             BSF     PORTC, RC5
00A6   0008           00218             RETURN
                      00219             
                      00220 ;------- Rutinas para resetear el timer0.
00A7   3014           00221 LOAD_SEC    MOVLW   .20             ; Cargamos el contador con 20 cuentas.
00A8   00F5           00222             MOVWF   SEC_CNT
00A9   0008           00223             RETURN
                      00224 ;------- Rutina para cargar el TMR0 con 60 -> 50[ms].
00AA   0874           00225 LOAD_TMR0   MOVF    T0_VAL, W       ; Cargamos timer con T0_VAL.
00AB   0081           00226             MOVWF   TMR0
00AC   0008           00227             RETURN
MPASM 5.84                          TEST.ASM   6-16-2023  11:18:03         PAGE  6


LOC  OBJECT CODE     LINE SOURCE TEXT
  VALUE

                      00228             
                      00229 ;------- Rutinas para prender y apagar el LED de RA0.
00AD   2???           00230 TOG_LED     CALL    LOAD_SEC        ; Resetea la cuenta de 1[s]
00AE   3001           00231             MOVLW   0x01            ; Switchea el status del led en RA0
00AF   0685           00232             XORWF   PORTA, F
00B0   2???           00233             GOTO    END_ISR
                      00234             
                      00235 ;------- Rutinas para convertir el numero decimal a escala 0-100%   
00B1   3000           00236 ZERO_LED    MOVLW   b'00000000'     ; Despues de testear en que rango esta el valor del ADC
00B2   1283 1303      00237             BANKSEL PORTB           ; Se encienden los leds correspondientes y se apagan los que no van.
00B4   0086           00238             MOVWF   PORTB           ; Tambien se apaga el buzzer y se prende solo cuando se encienden
00B5   1108           00239             BCF     PORTD, RD2      ; los 10 leds, es decir que esta en el rango del 90% maximo.
00B6   1188           00240             BCF     PORTD, RD3
00B7   2???           00241             GOTO    BUZ_OFF
00B8   2???           00242             GOTO    MAIN     
00B9   3001           00243 ONE_LED     MOVLW   b'00000001'
00BA   1283 1303      00244             BANKSEL PORTB
00BC   0086           00245             MOVWF   PORTB
00BD   1108           00246             BCF     PORTD, RD2
00BE   1188           00247             BCF     PORTD, RD3
00BF   2???           00248             GOTO    BUZ_OFF
00C0   2???           00249             GOTO    MAIN 
00C1   3003           00250 TWO_LED     MOVLW   b'00000011'
00C2   1283 1303      00251             BANKSEL PORTB
00C4   0086           00252             MOVWF   PORTB
00C5   1108           00253             BCF     PORTD, RD2
00C6   1188           00254             BCF     PORTD, RD3
00C7   2???           00255             GOTO    BUZ_OFF
00C8   2???           00256             GOTO    MAIN 
00C9   3007           00257 THREE_LED   MOVLW   b'00000111'
00CA   1283 1303      00258             BANKSEL PORTB
00CC   0086           00259             MOVWF   PORTB
00CD   1108           00260             BCF     PORTD, RD2
00CE   1188           00261             BCF     PORTD, RD3
00CF   2???           00262             GOTO    BUZ_OFF
00D0   2???           00263             GOTO    MAIN 
00D1   300F           00264 FOUR_LED    MOVLW   b'00001111'
00D2   1283 1303      00265             BANKSEL PORTB
00D4   0086           00266             MOVWF   PORTB
00D5   1108           00267             BCF     PORTD, RD2
00D6   1188           00268             BCF     PORTD, RD3
00D7   2???           00269             GOTO    BUZ_OFF
00D8   2???           00270             GOTO    MAIN 
00D9   301F           00271 FIVE_LED    MOVLW   b'00011111'
00DA   1283 1303      00272             BANKSEL PORTB
00DC   0086           00273             MOVWF   PORTB
00DD   1108           00274             BCF     PORTD, RD2
00DE   1188           00275             BCF     PORTD, RD3
00DF   2???           00276             GOTO    BUZ_OFF
00E0   2???           00277             GOTO    MAIN 
00E1   303F           00278 SIX_LED     MOVLW   b'00111111'
00E2   1283 1303      00279             BANKSEL PORTB
00E4   0086           00280             MOVWF   PORTB
MPASM 5.84                          TEST.ASM   6-16-2023  11:18:03         PAGE  7


LOC  OBJECT CODE     LINE SOURCE TEXT
  VALUE

00E5   1108           00281             BCF     PORTD, RD2
00E6   1188           00282             BCF     PORTD, RD3
00E7   2???           00283             GOTO    BUZ_OFF
00E8   2???           00284             GOTO    MAIN 
00E9   307F           00285 SEVEN_LED   MOVLW   b'01111111'
00EA   1283 1303      00286             BANKSEL PORTB
00EC   0086           00287             MOVWF   PORTB
00ED   1108           00288             BCF     PORTD, RD2
00EE   1188           00289             BCF     PORTD, RD3
00EF   2???           00290             GOTO    BUZ_OFF
00F0   2???           00291             GOTO    MAIN 
00F1   30FF           00292 EIGHT_LED   MOVLW   b'11111111'
00F2   1283 1303      00293             BANKSEL PORTB
00F4   0086           00294             MOVWF   PORTB
00F5   1108           00295             BCF     PORTD, RD2
00F6   1188           00296             BCF     PORTD, RD3
00F7   2???           00297             GOTO    BUZ_OFF
00F8   2???           00298             GOTO    MAIN 
00F9   30FF           00299 NINE_LED    MOVLW   b'11111111'
00FA   1283 1303      00300             BANKSEL PORTB
00FC   0086           00301             MOVWF   PORTB
00FD   1508           00302             BSF     PORTD, RD2
00FE   1188           00303             BCF     PORTD, RD3
00FF   2???           00304             GOTO    BUZ_OFF
0100   2???           00305             GOTO    MAIN 
0101   30FF           00306 TEN_LED     MOVLW   b'11111111'
0102   1283 1303      00307             BANKSEL PORTB
0104   0086           00308             MOVWF   PORTB
0105   1508           00309             BSF     PORTD, RD2
0106   1588           00310             BSF     PORTD, RD3
0107   2???           00311             GOTO    BUZ_ON
0108   2???           00312             GOTO    MAIN 
                      00313             
                      00314 ; ******************************************************************************
                      00315 ; ************************* INTERRUPTION-ROUTINE *******************************
                      00316 ; ******************************************************************************
0109   00F0           00317 ISR         MOVWF   W_TEMP          ; Salvo contexto.
010A   0E03           00318             SWAPF   STATUS, W
010B   00F1           00319             MOVWF   S_TEMP
                      00320             
010C   190B           00321             BTFSC   INTCON, T0IF    ; Testeo si es interrupcion de TMR0.
010D   2???           00322             GOTO    T0_INT
010E   1B0C           00323             BTFSC   PIR1, ADIF      ; Testeo si es interrupcion de ADC.
010F   2???           00324             GOTO    ADC_INT
0110   1A8C           00325             BTFSC   PIR1, RCIF      ; Testeo si es interrupcion de RX.
0111   2???           00326             GOTO    RX_INT
0112   2???           00327             GOTO    END_ISR
                      00328             
0113   130C           00329 ADC_INT     BCF     PIR1, ADIF      ; Limpio la flag.
0114   081E           00330             MOVF    ADRESH, W       ; Muevo la medicion a W.
0115   00F2           00331             MOVWF   ADC_READ        ; Guardo la medicion en ADC_READ.
0116   2???           00332             CALL    DELAY_20us      
0117   149F           00333             BSF     ADCON0, GO      ; Vuelvo a dejar el ADC en medicion.
MPASM 5.84                          TEST.ASM   6-16-2023  11:18:03         PAGE  8


LOC  OBJECT CODE     LINE SOURCE TEXT
  VALUE

0118   2???           00334             GOTO    END_ISR
                      00335            
0119   110B           00336 T0_INT      BCF     INTCON, T0IF    ; Limpio flag de T0 y vuelvo a iniciar TMR0.
011A   2???           00337             CALL    LOAD_TMR0
011B   0BF5           00338             DECFSZ  SEC_CNT, F      ; Contador de 20 ciclos, si conto 20 paso 1[s]
011C   2???           00339             GOTO    END_ISR
011D   2???           00340             CALL    SEND_TX         ; Envio los datos.
011E   2???           00341             GOTO    TOG_LED
                      00342             
011F   128C           00343 RX_INT      BCF     PIR1, RCIF      ; Limpio bandera de RX.
0120   081A           00344             MOVF    RCREG, W
0121   00F7           00345             MOVWF   RX_DATA         ; Lo que llego de la interrupcion se guarda en el registro TX_DATA.
0122   2???           00346             GOTO    END_ISR
                      00347 
0123   0E71           00348 END_ISR     SWAPF   S_TEMP, W       ; Retorno contexto.
0124   0083           00349             MOVWF   STATUS
0125   0EF0           00350             SWAPF   W_TEMP, F
0126   0E70           00351             SWAPF   W_TEMP, W
0127   0009           00352             RETFIE
                      00353             
2FF4 3FFF             00354             END
MPASM 5.84                          TEST.ASM   6-16-2023  11:18:03         PAGE  9


SYMBOL TABLE
  LABEL                             VALUE 

ABDEN                             00000000
ABDOVF                            00000007
ACKDT                             00000005
ACKEN                             00000004
ACKSTAT                           00000006
ADCON0                            0000001F
ADCON1                            0000009F
ADCS0                             00000006
ADCS1                             00000007
ADC_INT                           00000113
ADC_OFF                           0000009B
ADC_OFF_ON                        00000095
ADC_ON                            000000A1
ADC_READ                          00000072
ADDEN                             00000003
ADFM                              00000007
ADIE                              00000006
ADIF                              00000006
ADON                              00000000
ADRESH                            0000001E
ADRESL                            0000009E
ANS0                              00000000
ANS1                              00000001
ANS10                             00000002
ANS11                             00000003
ANS12                             00000004
ANS13                             00000005
ANS2                              00000002
ANS3                              00000003
ANS4                              00000004
ANS5                              00000005
ANS6                              00000006
ANS7                              00000007
ANS8                              00000000
ANS9                              00000001
ANSEL                             00000188
ANSELH                            00000189
BAUDCTL                           00000187
BCLIE                             00000003
BCLIF                             00000003
BF                                00000000
BRG0                              00000000
BRG1                              00000001
BRG10                             00000002
BRG11                             00000003
BRG12                             00000004
BRG13                             00000005
BRG14                             00000006
BRG15                             00000007
BRG16                             00000003
BRG2                              00000002
BRG3                              00000003
BRG4                              00000004
MPASM 5.84                          TEST.ASM   6-16-2023  11:18:03         PAGE 10


SYMBOL TABLE
  LABEL                             VALUE 

BRG5                              00000005
BRG6                              00000006
BRG7                              00000007
BRG8                              00000000
BRG9                              00000001
BRGH                              00000002
BUZ_OFF                           00000091
BUZ_ON                            00000093
BUZ_VAL                           00000076
C                                 00000000
C1CH0                             00000000
C1CH1                             00000001
C1IE                              00000005
C1IF                              00000005
C1OE                              00000005
C1ON                              00000007
C1OUT                             00000006
C1POL                             00000004
C1R                               00000002
C1RSEL                            00000005
C1SEN                             00000005
C2CH0                             00000000
C2CH1                             00000001
C2IE                              00000006
C2IF                              00000006
C2OE                              00000005
C2ON                              00000007
C2OUT                             00000006
C2POL                             00000004
C2R                               00000002
C2REN                             00000004
C2RSEL                            00000004
C2SYNC                            00000000
CCP1CON                           00000017
CCP1IE                            00000002
CCP1IF                            00000002
CCP1M0                            00000000
CCP1M1                            00000001
CCP1M2                            00000002
CCP1M3                            00000003
CCP1X                             00000005
CCP1Y                             00000004
CCP2CON                           0000001D
CCP2IE                            00000000
CCP2IF                            00000000
CCP2M0                            00000000
CCP2M1                            00000001
CCP2M2                            00000002
CCP2M3                            00000003
CCP2X                             00000005
CCP2Y                             00000004
CCPR1                             00000015
CCPR1H                            00000016
MPASM 5.84                          TEST.ASM   6-16-2023  11:18:03         PAGE 11


SYMBOL TABLE
  LABEL                             VALUE 

CCPR1L                            00000015
CCPR2                             0000001B
CCPR2H                            0000001C
CCPR2L                            0000001B
CHS0                              00000002
CHS1                              00000003
CHS2                              00000004
CHS3                              00000005
CKE                               00000006
CKP                               00000004
CM1CON0                           00000107
CM2CON0                           00000108
CM2CON1                           00000109
CREN                              00000004
CSRC                              00000007
D                                 00000005
DATA_ADDRESS                      00000005
DC                                00000001
DC1B0                             00000004
DC1B1                             00000005
DC2B0                             00000004
DC2B1                             00000005
DELAY_20us                        00000073
D_A                               00000005
D_NOT_A                           00000005
ECCPAS                            0000009C
ECCPAS0                           00000004
ECCPAS1                           00000005
ECCPAS2                           00000006
ECCPASE                           00000007
EEADR                             0000010D
EEADRH                            0000010F
EECON1                            0000018C
EECON2                            0000018D
EEDAT                             0000010C
EEDATA                            0000010C
EEDATH                            0000010E
EEIE                              00000004
EEIF                              00000004
EEPGD                             00000007
EIGHT_LED                         000000F1
END_ISR                           00000123
F                                 00000001
FERR                              00000002
FIVE_LED                          000000D9
FOUR_LED                          000000D1
FSR                               00000004
FVREN                             00000000
GCEN                              00000007
GIE                               00000007
GO                                00000001
GO_DONE                           00000001
GO_NOT_DONE                       00000001
MPASM 5.84                          TEST.ASM   6-16-2023  11:18:03         PAGE 12


SYMBOL TABLE
  LABEL                             VALUE 

HTS                               00000002
I2C_DATA                          00000005
I2C_READ                          00000002
I2C_START                         00000003
I2C_STOP                          00000004
INDF                              00000000
INIT_ADC                          00000069
INIT_INT                          0000005F
INIT_UART                         00000078
INTCON                            0000000B
INTE                              00000004
INTEDG                            00000006
INTF                              00000001
IOCB                              00000096
IOCB0                             00000000
IOCB1                             00000001
IOCB2                             00000002
IOCB3                             00000003
IOCB4                             00000004
IOCB5                             00000005
IOCB6                             00000006
IOCB7                             00000007
IRCF0                             00000004
IRCF1                             00000005
IRCF2                             00000006
IRP                               00000007
ISR                               00000109
LOAD_SEC                          000000A7
LOAD_TMR0                         000000AA
LTS                               00000001
MAIN                              0000002F
MC1OUT                            00000007
MC2OUT                            00000006
MSK                               00000093
MSK0                              00000000
MSK1                              00000001
MSK2                              00000002
MSK3                              00000003
MSK4                              00000004
MSK5                              00000005
MSK6                              00000006
MSK7                              00000007
NINE_LED                          000000F9
NOT_A                             00000005
NOT_ADDRESS                       00000005
NOT_BO                            00000000
NOT_BOR                           00000000
NOT_DONE                          00000001
NOT_PD                            00000003
NOT_POR                           00000001
NOT_RBPU                          00000007
NOT_RC8                           00000006
NOT_T1SYNC                        00000002
MPASM 5.84                          TEST.ASM   6-16-2023  11:18:03         PAGE 13


SYMBOL TABLE
  LABEL                             VALUE 

NOT_TO                            00000004
NOT_TX8                           00000006
NOT_W                             00000002
NOT_WRITE                         00000002
OERR                              00000001
ONE_LED                           000000B9
OPTION_REG                        00000081
OSCCON                            0000008F
OSCTUNE                           00000090
OSFIE                             00000007
OSFIF                             00000007
OSTS                              00000003
P                                 00000004
P1M0                              00000006
P1M1                              00000007
PCL                               00000002
PCLATH                            0000000A
PCON                              0000008E
PDC0                              00000000
PDC1                              00000001
PDC2                              00000002
PDC3                              00000003
PDC4                              00000004
PDC5                              00000005
PDC6                              00000006
PEIE                              00000006
PEN                               00000002
PIE1                              0000008C
PIE2                              0000008D
PIR1                              0000000C
PIR2                              0000000D
PORTA                             00000005
PORTB                             00000006
PORTC                             00000007
PORTD                             00000008
PORTE                             00000009
PR2                               00000092
PRSEN                             00000007
PS0                               00000000
PS1                               00000001
PS2                               00000002
PSA                               00000003
PSSAC0                            00000002
PSSAC1                            00000003
PSSBD0                            00000000
PSSBD1                            00000001
PSTRCON                           0000009D
PULSR                             00000002
PULSS                             00000003
PWM1CON                           0000009B
R                                 00000002
RA0                               00000000
RA1                               00000001
MPASM 5.84                          TEST.ASM   6-16-2023  11:18:03         PAGE 14


SYMBOL TABLE
  LABEL                             VALUE 

RA2                               00000002
RA3                               00000003
RA4                               00000004
RA5                               00000005
RA6                               00000006
RA7                               00000007
RB0                               00000000
RB1                               00000001
RB2                               00000002
RB3                               00000003
RB4                               00000004
RB5                               00000005
RB6                               00000006
RB7                               00000007
RBIE                              00000003
RBIF                              00000000
RC0                               00000000
RC1                               00000001
RC2                               00000002
RC3                               00000003
RC4                               00000004
RC5                               00000005
RC6                               00000006
RC7                               00000007
RC8_9                             00000006
RC9                               00000006
RCD8                              00000000
RCEN                              00000003
RCIDL                             00000006
RCIE                              00000005
RCIF                              00000005
RCREG                             0000001A
RCSTA                             00000018
RD                                00000000
RD0                               00000000
RD1                               00000001
RD2                               00000002
RD3                               00000003
RD4                               00000004
RD5                               00000005
RD6                               00000006
RD7                               00000007
RE0                               00000000
RE1                               00000001
RE2                               00000002
RE3                               00000003
READ_WRITE                        00000002
RP0                               00000005
RP1                               00000006
RSEN                              00000001
RX9                               00000006
RX9D                              00000000
RX_CODE                           00000078
MPASM 5.84                          TEST.ASM   6-16-2023  11:18:03         PAGE 15


SYMBOL TABLE
  LABEL                             VALUE 

RX_DATA                           00000077
RX_INT                            0000011F
R_NOT_W                           00000002
R_W                               00000002
S                                 00000003
SBOREN                            00000004
SCKP                              00000004
SCS                               00000000
SEC_CNT                           00000075
SEN                               00000000
SENDB                             00000003
SEND_TX                           00000088
SETUP                             00000005
SEVEN_LED                         000000E9
SIX_LED                           000000E1
SMP                               00000007
SPBRG                             00000099
SPBRGH                            0000009A
SPEN                              00000007
SR0                               00000006
SR1                               00000007
SRCON                             00000185
SREN                              00000005
SSPADD                            00000093
SSPBUF                            00000013
SSPCON                            00000014
SSPCON2                           00000091
SSPEN                             00000005
SSPIE                             00000003
SSPIF                             00000003
SSPM0                             00000000
SSPM1                             00000001
SSPM2                             00000002
SSPM3                             00000003
SSPMSK                            00000093
SSPOV                             00000006
SSPSTAT                           00000094
STATUS                            00000003
STRA                              00000000
STRB                              00000001
STRC                              00000002
STRD                              00000003
STRSYNC                           00000004
SWDTEN                            00000000
SYNC                              00000004
S_TEMP                            00000071
T0CS                              00000005
T0IE                              00000005
T0IF                              00000002
T0SE                              00000004
T0_INT                            00000119
T0_VAL                            00000074
T1CKPS0                           00000004
MPASM 5.84                          TEST.ASM   6-16-2023  11:18:03         PAGE 16


SYMBOL TABLE
  LABEL                             VALUE 

T1CKPS1                           00000005
T1CON                             00000010
T1GINV                            00000007
T1GIV                             00000007
T1GSS                             00000001
T1INSYNC                          00000002
T1OSCEN                           00000003
T1SYNC                            00000002
T2CKPS0                           00000000
T2CKPS1                           00000001
T2CON                             00000012
TEMP                              00000073
TEMP2                             00000079
TEN_LED                           00000101
THREE_LED                         000000C9
TMR0                              00000001
TMR0IE                            00000005
TMR0IF                            00000002
TMR1                              0000000E
TMR1CS                            00000001
TMR1GE                            00000006
TMR1H                             0000000F
TMR1IE                            00000000
TMR1IF                            00000000
TMR1L                             0000000E
TMR1ON                            00000000
TMR2                              00000011
TMR2IE                            00000001
TMR2IF                            00000001
TMR2ON                            00000002
TOG_LED                           000000AD
TOUTPS0                           00000003
TOUTPS1                           00000004
TOUTPS2                           00000005
TOUTPS3                           00000006
TRISA                             00000085
TRISA0                            00000000
TRISA1                            00000001
TRISA2                            00000002
TRISA3                            00000003
TRISA4                            00000004
TRISA5                            00000005
TRISA6                            00000006
TRISA7                            00000007
TRISB                             00000086
TRISB0                            00000000
TRISB1                            00000001
TRISB2                            00000002
TRISB3                            00000003
TRISB4                            00000004
TRISB5                            00000005
TRISB6                            00000006
TRISB7                            00000007
MPASM 5.84                          TEST.ASM   6-16-2023  11:18:03         PAGE 17


SYMBOL TABLE
  LABEL                             VALUE 

TRISC                             00000087
TRISC0                            00000000
TRISC1                            00000001
TRISC2                            00000002
TRISC3                            00000003
TRISC4                            00000004
TRISC5                            00000005
TRISC6                            00000006
TRISC7                            00000007
TRISD                             00000088
TRISD0                            00000000
TRISD1                            00000001
TRISD2                            00000002
TRISD3                            00000003
TRISD4                            00000004
TRISD5                            00000005
TRISD6                            00000006
TRISD7                            00000007
TRISE                             00000089
TRISE0                            00000000
TRISE1                            00000001
TRISE2                            00000002
TRISE3                            00000003
TRMT                              00000001
TUN0                              00000000
TUN1                              00000001
TUN2                              00000002
TUN3                              00000003
TUN4                              00000004
TWO_LED                           000000C1
TX8_9                             00000006
TX9                               00000006
TX9D                              00000000
TXD8                              00000000
TXEN                              00000005
TXIE                              00000004
TXIF                              00000004
TXREG                             00000019
TXSTA                             00000098
UA                                00000001
ULPWUE                            00000005
ULPWUIE                           00000002
ULPWUIF                           00000002
VCFG0                             00000004
VCFG1                             00000005
VR0                               00000000
VR1                               00000001
VR2                               00000002
VR3                               00000003
VRCON                             00000097
VREN                              00000007
VROE                              00000006
VRR                               00000005
MPASM 5.84                          TEST.ASM   6-16-2023  11:18:03         PAGE 18


SYMBOL TABLE
  LABEL                             VALUE 

VRSS                              00000004
W                                 00000000
WCOL                              00000007
WDTCON                            00000105
WDTPS0                            00000001
WDTPS1                            00000002
WDTPS2                            00000003
WDTPS3                            00000004
WPUB                              00000095
WPUB0                             00000000
WPUB1                             00000001
WPUB2                             00000002
WPUB3                             00000003
WPUB4                             00000004
WPUB5                             00000005
WPUB6                             00000006
WPUB7                             00000007
WR                                00000001
WREN                              00000002
WRERR                             00000003
WUE                               00000001
W_TEMP                            00000070
Z                                 00000002
ZERO_LED                          000000B1
_.org_2_0076                      00000076
_.org_2_008F                      0000008F
_BOR21V                           00003EFF
_BOR40V                           00003FFF
_BOR4V_BOR21V                     00003EFF
_BOR4V_BOR40V                     00003FFF
_BOREN_NSLEEP                     00003EFF
_BOREN_OFF                        00003CFF
_BOREN_ON                         00003FFF
_BOREN_SBODEN                     00003DFF
_BOR_NSLEEP                       00003EFF
_BOR_OFF                          00003CFF
_BOR_ON                           00003FFF
_BOR_SBODEN                       00003DFF
_CONFIG1                          00002007
_CONFIG2                          00002008
_CPD_OFF                          00003FFF
_CPD_ON                           00003F7F
_CP_OFF                           00003FFF
_CP_ON                            00003FBF
_DEBUG_OFF                        00003FFF
_DEBUG_ON                         00001FFF
_DEVID1                           00002006
_EC_OSC                           00003FFB
_EXTRC                            00003FFF
_EXTRCIO                          00003FFE
_EXTRC_OSC_CLKOUT                 00003FFF
_EXTRC_OSC_NOCLKOUT               00003FFE
_FCMEN_OFF                        000037FF
MPASM 5.84                          TEST.ASM   6-16-2023  11:18:03         PAGE 19


SYMBOL TABLE
  LABEL                             VALUE 

_FCMEN_ON                         00003FFF
_FOSC_EC                          00003FFB
_FOSC_EXTRC_CLKOUT                00003FFF
_FOSC_EXTRC_NOCLKOUT              00003FFE
_FOSC_HS                          00003FFA
_FOSC_INTRC_CLKOUT                00003FFD
_FOSC_INTRC_NOCLKOUT              00003FFC
_FOSC_LP                          00003FF8
_FOSC_XT                          00003FF9
_HS_OSC                           00003FFA
_IDLOC0                           00002000
_IDLOC1                           00002001
_IDLOC2                           00002002
_IDLOC3                           00002003
_IESO_OFF                         00003BFF
_IESO_ON                          00003FFF
_INTOSC                           00003FFD
_INTOSCIO                         00003FFC
_INTRC_OSC_CLKOUT                 00003FFD
_INTRC_OSC_NOCLKOUT               00003FFC
_LP_OSC                           00003FF8
_LVP_OFF                          00002FFF
_LVP_ON                           00003FFF
_MCLRE_OFF                        00003FDF
_MCLRE_ON                         00003FFF
_PWRTE_OFF                        00003FFF
_PWRTE_ON                         00003FEF
_WDTE_OFF                         00003FF7
_WDTE_ON                          00003FFF
_WDT_OFF                          00003FF7
_WDT_ON                           00003FFF
_WRT_1FOURTH                      00003BFF
_WRT_256                          00003DFF
_WRT_HALF                         000039FF
_WRT_OFF                          00003FFF
_XT_OSC                           00003FF9
__16F887                          00000001

Errors   :     0
Warnings :    10 reported,     0 suppressed
Messages :    13 reported,     0 suppressed

